target datalayout = "e-m:e-p270:32:32-p271:32:32-p272:64:64-i64:64-i128:128-f80:128-n8:16:32:64-S128"
target triple = "x86_64-unknown-linux-gnu"

@.str = private unnamed_addr constant [12 x i8] c"fs/buffer.c\00", align 1

; Function Attrs: fn_ret_thunk_extern nounwind null_pointer_is_valid
define internal fastcc noundef zeroext i1 @drop_buffers(ptr noundef %0, ptr nocapture noundef writeonly %1) unnamed_addr #2 align 16 {
  %3 = getelementptr inbounds i8, ptr %0, i64 40
  %4 = load ptr, ptr %3, align 8
  br label %5

5:                                                ; preds = %14, %2
  %6 = phi ptr [ %4, %2 ], [ %16, %14 ]
  %7 = getelementptr inbounds i8, ptr %6, i64 96
  %8 = load volatile i32, ptr %7, align 4
  %9 = load i64, ptr %6, align 8
  %10 = trunc i64 %9 to i32
  %11 = and i32 %10, 6
  %12 = or i32 %11, %8
  %13 = icmp eq i32 %12, 0
  br i1 %13, label %14, label %48

14:                                               ; preds = %5
  %15 = getelementptr inbounds i8, ptr %6, i64 8
  %16 = load ptr, ptr %15, align 8
  %17 = icmp eq ptr %16, %4
  br i1 %17, label %18, label %5, !llvm.loop !198

18:                                               ; preds = %35, %14
  %19 = phi ptr [ %21, %35 ], [ %16, %14 ]
  %20 = getelementptr inbounds i8, ptr %19, i64 8
  %21 = load ptr, ptr %20, align 8
  %22 = getelementptr inbounds i8, ptr %19, i64 88
  %23 = load ptr, ptr %22, align 8
  %24 = icmp eq ptr %23, null
  br i1 %24, label %35, label %25

25:                                               ; preds = %18
  %26 = getelementptr inbounds i8, ptr %19, i64 72
  %27 = getelementptr inbounds i8, ptr %19, i64 80
  %28 = load ptr, ptr %27, align 8
  %29 = load ptr, ptr %26, align 8
  %30 = getelementptr inbounds i8, ptr %29, i64 8
  store ptr %28, ptr %30, align 8
  store volatile ptr %29, ptr %28, align 8
  store volatile ptr %26, ptr %26, align 8
  store volatile ptr %26, ptr %27, align 8
  %31 = load ptr, ptr %22, align 8
  %32 = icmp eq ptr %31, null
  br i1 %32, label %33, label %34, !prof !18

33:                                               ; preds = %25
  tail call void asm sideeffect "843: nop\0A\09.pushsection .discard.instr_begin\0A\09.long 843b - .\0A\09.popsection\0A\09", "i,~{dirflag},~{fpsr},~{flags}"(i32 843) #13, !srcloc !33
  tail call void asm sideeffect "1:\09.byte 0x0f, 0x0b\0A.pushsection __bug_table,\22aw\22\0A2:\09.long 1b - .\09# bug_entry::bug_addr\0A\09.long ${0:c} - .\09# bug_entry::file\0A\09.word ${1:c}\09# bug_entry::line\0A\09.word ${2:c}\09# bug_entry::flags\0A\09.org 2b+${3:c}\0A.popsection\0A998:\0A\09.pushsection .discard.reachable\0A\09.long 998b\0A\09.popsection\0A\09", "i,i,i,i,~{dirflag},~{fpsr},~{flags}"(ptr nonnull @.str, i32 515, i32 2305, i64 12) #13, !srcloc !34
  tail call void asm sideeffect "844: nop\0A\09.pushsection .discard.instr_end\0A\09.long 844b - .\0A\09.popsection\0A\09", "i,~{dirflag},~{fpsr},~{flags}"(i32 844) #13, !srcloc !35
  br label %34

34:                                               ; preds = %33, %25
  store ptr null, ptr %22, align 8
  br label %35

35:                                               ; preds = %34, %18
  %36 = icmp eq ptr %21, %4
  br i1 %36, label %37, label %18, !llvm.loop !199

37:                                               ; preds = %35
  store ptr %4, ptr %1, align 8
  %38 = load volatile i64, ptr %0, align 8
  %39 = and i64 %38, 32768
  %40 = icmp eq i64 %39, 0
  br i1 %40, label %48, label %41

41:                                               ; preds = %37
  %42 = getelementptr i8, ptr %0, i64 1
  tail call void asm sideeffect ".pushsection .smp_locks,\22a\22\0A.balign 4\0A.long 671f - .\0A.popsection\0A671:\0A\09lock; andb ${1:b},$0", "=*m,iq,*m,~{dirflag},~{fpsr},~{flags}"(ptr elementtype(i8) %42, i32 -129, ptr elementtype(i8) %42) #13, !srcloc !17
  store ptr null, ptr %3, align 8
  %43 = getelementptr inbounds i8, ptr %0, i64 52
  %44 = tail call i8 asm sideeffect ".pushsection .smp_locks,\22a\22\0A.balign 4\0A.long 671f - .\0A.popsection\0A671:\0A\09lock; decl $0\0A\09/* output condition code e*/\0A", "=*m,={@cce},*m,~{memory},~{dirflag},~{fpsr},~{flags}"(ptr elementtype(i32) %43, ptr elementtype(i32) %43) #13, !srcloc !61
  %45 = icmp ult i8 %44, 2
  tail call void @llvm.assume(i1 %45)
  %46 = icmp eq i8 %44, 0
  br i1 %46, label %48, label %47

47:                                               ; preds = %41
  tail call void @__folio_put(ptr noundef %0) #13
  br label %48

48:                                               ; preds = %47, %41, %37, %5
  ret i1 %13
}

; Function Attrs: fn_ret_thunk_extern nounwind null_pointer_is_valid
define dso_local noundef zeroext i1 @try_to_free_buffers(ptr noundef %0) #2 align 16 {
  %2 = alloca ptr, align 8
  %3 = getelementptr inbounds i8, ptr %0, i64 24
  %4 = load ptr, ptr %3, align 8
  call void @llvm.lifetime.start.p0(i64 8, ptr nonnull %2) #13
  store ptr null, ptr %2, align 8
  %5 = load volatile i64, ptr %0, align 8
  %6 = and i64 %5, 1
  %7 = icmp eq i64 %6, 0
  br i1 %7, label %8, label %9, !prof !18

8:                                                ; preds = %1
  tail call void asm sideeffect "931: nop\0A\09.pushsection .discard.instr_begin\0A\09.long 931b - .\0A\09.popsection\0A\09", "i,~{dirflag},~{fpsr},~{flags}"(i32 931) #13, !srcloc !195
  tail call void asm sideeffect "1:\09.byte 0x0f, 0x0b\0A.pushsection __bug_table,\22aw\22\0A2:\09.long 1b - .\09# bug_entry::bug_addr\0A\09.long ${0:c} - .\09# bug_entry::file\0A\09.word ${1:c}\09# bug_entry::line\0A\09.word ${2:c}\09# bug_entry::flags\0A\09.org 2b+${3:c}\0A.popsection\0A", "i,i,i,i,~{dirflag},~{fpsr},~{flags}"(ptr nonnull @.str, i32 2919, i32 0, i64 12) #13, !srcloc !196
  unreachable

9:                                                ; preds = %1
  %10 = load volatile i64, ptr %0, align 8
  %11 = and i64 %10, 2
  %12 = icmp eq i64 %11, 0
  br i1 %12, label %13, label %35

13:                                               ; preds = %9
  %14 = icmp eq ptr %4, null
  br i1 %14, label %15, label %17

15:                                               ; preds = %13
  %16 = call fastcc zeroext i1 @drop_buffers(ptr noundef %0, ptr noundef nonnull %2)
  br label %26

17:                                               ; preds = %13
  %18 = getelementptr inbounds i8, ptr %4, i64 164
  tail call void @_raw_spin_lock(ptr noundef %18) #13
  %19 = call fastcc zeroext i1 @drop_buffers(ptr noundef %0, ptr noundef nonnull %2)
  br i1 %19, label %20, label %25

20:                                               ; preds = %17
  %21 = load volatile i64, ptr %0, align 8
  %22 = and i64 %21, 16
  %23 = icmp eq i64 %22, 0
  br i1 %23, label %25, label %24

24:                                               ; preds = %20
  tail call void @__folio_cancel_dirty(ptr noundef %0) #13
  br label %25

25:                                               ; preds = %24, %20, %17
  tail call void @_raw_spin_unlock(ptr noundef %18) #13
  br label %26

26:                                               ; preds = %25, %15
  %27 = phi i1 [ %16, %15 ], [ %19, %25 ]
  %28 = load ptr, ptr %2, align 8
  %29 = icmp eq ptr %28, null
  br i1 %29, label %35, label %30

30:                                               ; preds = %30, %26
  %31 = phi ptr [ %33, %30 ], [ %28, %26 ]
  %32 = getelementptr inbounds i8, ptr %31, i64 8
  %33 = load ptr, ptr %32, align 8
  tail call void @free_buffer_head(ptr noundef %31)
  %34 = icmp eq ptr %33, %28
  br i1 %34, label %35, label %30, !llvm.loop !197

35:                                               ; preds = %30, %26, %9
  %36 = phi i1 [ false, %9 ], [ %27, %26 ], [ %27, %30 ]
  call void @llvm.lifetime.end.p0(i64 8, ptr nonnull %2) #13
  ret i1 %36
}