; Function Attrs: fn_ret_thunk_extern nounwind null_pointer_is_valid
define dso_local noundef zeroext i1 @try_to_free_buffers(ptr noundef %0) #2 align 16 {
  %2 = getelementptr inbounds i8, ptr %0, i64 24
  %3 = load ptr, ptr %2, align 8
  %4 = load volatile i64, ptr %0, align 8
  %5 = and i64 %4, 1
  %6 = icmp eq i64 %5, 0
  br i1 %6, label %7, label %8, !prof !18

7:                                                ; preds = %1
  tail call void asm sideeffect "931: nop\0A\09.pushsection .discard.instr_begin\0A\09.long 931b - .\0A\09.popsection\0A\09", "i,~{dirflag},~{fpsr},~{flags}"(i32 931) #13, !srcloc !197
  tail call void asm sideeffect "1:\09.byte 0x0f, 0x0b\0A.pushsection __bug_table,\22aw\22\0A2:\09.long 1b - .\09# bug_entry::bug_addr\0A\09.long ${0:c} - .\09# bug_entry::file\0A\09.word ${1:c}\09# bug_entry::line\0A\09.word ${2:c}\09# bug_entry::flags\0A\09.org 2b+${3:c}\0A.popsection\0A", "i,i,i,i,~{dirflag},~{fpsr},~{flags}"(ptr nonnull @.str, i32 2919, i32 0, i64 12) #13, !srcloc !198
  unreachable

8:                                                ; preds = %1
  %9 = load volatile i64, ptr %0, align 8
  %10 = and i64 %9, 2
  %11 = icmp eq i64 %10, 0
  br i1 %11, label %12, label %drop_buffers.exit.thread

12:                                               ; preds = %8
  %13 = icmp eq ptr %3, null
  br i1 %13, label %14, label %59

14:                                               ; preds = %12
  %15 = getelementptr inbounds i8, ptr %0, i64 40
  %16 = load ptr, ptr %15, align 8
  br label %17

17:                                               ; preds = %26, %14
  %18 = phi ptr [ %16, %14 ], [ %28, %26 ]
  %19 = getelementptr inbounds i8, ptr %18, i64 96
  %20 = load volatile i32, ptr %19, align 4
  %21 = load i64, ptr %18, align 8
  %22 = trunc i64 %21 to i32
  %23 = and i32 %22, 6
  %24 = or i32 %23, %20
  %25 = icmp eq i32 %24, 0
  br i1 %25, label %26, label %drop_buffers.exit.thread

26:                                               ; preds = %17
  %27 = getelementptr inbounds i8, ptr %18, i64 8
  %28 = load ptr, ptr %27, align 8
  %29 = icmp eq ptr %28, %16
  br i1 %29, label %.preheader.i, label %17, !llvm.loop !199

.preheader.i:                                     ; preds = %26, %46
  %30 = phi ptr [ %32, %46 ], [ %16, %26 ]
  %31 = getelementptr inbounds i8, ptr %30, i64 8
  %32 = load ptr, ptr %31, align 8
  %33 = getelementptr inbounds i8, ptr %30, i64 88
  %34 = load ptr, ptr %33, align 8
  %35 = icmp eq ptr %34, null
  br i1 %35, label %46, label %36

36:                                               ; preds = %.preheader.i
  %37 = getelementptr inbounds i8, ptr %30, i64 72
  %38 = getelementptr inbounds i8, ptr %30, i64 80
  %39 = load ptr, ptr %38, align 8
  %40 = load ptr, ptr %37, align 8
  %41 = getelementptr inbounds i8, ptr %40, i64 8
  store ptr %39, ptr %41, align 8
  store volatile ptr %40, ptr %39, align 8
  store volatile ptr %37, ptr %37, align 8
  store volatile ptr %37, ptr %38, align 8
  %42 = load ptr, ptr %33, align 8
  %43 = icmp eq ptr %42, null
  br i1 %43, label %44, label %45, !prof !18

44:                                               ; preds = %36
  tail call void asm sideeffect "843: nop\0A\09.pushsection .discard.instr_begin\0A\09.long 843b - .\0A\09.popsection\0A\09", "i,~{dirflag},~{fpsr},~{flags}"(i32 843) #13, !srcloc !33
  tail call void asm sideeffect "1:\09.byte 0x0f, 0x0b\0A.pushsection __bug_table,\22aw\22\0A2:\09.long 1b - .\09# bug_entry::bug_addr\0A\09.long ${0:c} - .\09# bug_entry::file\0A\09.word ${1:c}\09# bug_entry::line\0A\09.word ${2:c}\09# bug_entry::flags\0A\09.org 2b+${3:c}\0A.popsection\0A998:\0A\09.pushsection .discard.reachable\0A\09.long 998b\0A\09.popsection\0A\09", "i,i,i,i,~{dirflag},~{fpsr},~{flags}"(ptr nonnull @.str, i32 515, i32 2305, i64 12) #13, !srcloc !34
  tail call void asm sideeffect "844: nop\0A\09.pushsection .discard.instr_end\0A\09.long 844b - .\0A\09.popsection\0A\09", "i,~{dirflag},~{fpsr},~{flags}"(i32 844) #13, !srcloc !35
  br label %45

45:                                               ; preds = %44, %36
  store ptr null, ptr %33, align 8
  br label %46

46:                                               ; preds = %45, %.preheader.i
  %47 = icmp eq ptr %32, %16
  br i1 %47, label %48, label %.preheader.i, !llvm.loop !200

48:                                               ; preds = %46
  %49 = load volatile i64, ptr %0, align 8
  %50 = and i64 %49, 32768
  %51 = icmp eq i64 %50, 0
  br i1 %51, label %drop_buffers.exit, label %52

52:                                               ; preds = %48
  %53 = getelementptr i8, ptr %0, i64 1
  tail call void asm sideeffect ".pushsection .smp_locks,\22a\22\0A.balign 4\0A.long 671f - .\0A.popsection\0A671:\0A\09lock; andb ${1:b},$0", "=*m,iq,*m,~{dirflag},~{fpsr},~{flags}"(ptr elementtype(i8) %53, i32 -129, ptr elementtype(i8) %53) #13, !srcloc !17
  store ptr null, ptr %15, align 8
  %54 = getelementptr inbounds i8, ptr %0, i64 52
  %55 = tail call i8 asm sideeffect ".pushsection .smp_locks,\22a\22\0A.balign 4\0A.long 671f - .\0A.popsection\0A671:\0A\09lock; decl $0\0A\09/* output condition code e*/\0A", "=*m,={@cce},*m,~{memory},~{dirflag},~{fpsr},~{flags}"(ptr elementtype(i32) %54, ptr elementtype(i32) %54) #13, !srcloc !61
  %56 = icmp ult i8 %55, 2
  tail call void @llvm.assume(i1 %56)
  %57 = icmp eq i8 %55, 0
  br i1 %57, label %drop_buffers.exit, label %58

58:                                               ; preds = %52
  tail call void @__folio_put(ptr noundef %0) #13
  br label %drop_buffers.exit

59:                                               ; preds = %12
  %60 = getelementptr inbounds i8, ptr %3, i64 164
  tail call void @_raw_spin_lock(ptr noundef %60) #13
  %61 = getelementptr inbounds i8, ptr %0, i64 40
  %62 = load ptr, ptr %61, align 8
  br label %63

63:                                               ; preds = %72, %59
  %64 = phi ptr [ %62, %59 ], [ %74, %72 ]
  %65 = getelementptr inbounds i8, ptr %64, i64 96
  %66 = load volatile i32, ptr %65, align 4
  %67 = load i64, ptr %64, align 8
  %68 = trunc i64 %67 to i32
  %69 = and i32 %68, 6
  %70 = or i32 %69, %66
  %71 = icmp eq i32 %70, 0
  br i1 %71, label %72, label %drop_buffers.exit3.thread

72:                                               ; preds = %63
  %73 = getelementptr inbounds i8, ptr %64, i64 8
  %74 = load ptr, ptr %73, align 8
  %75 = icmp eq ptr %74, %62
  br i1 %75, label %.preheader.i2, label %63, !llvm.loop !199

.preheader.i2:                                    ; preds = %72, %92
  %76 = phi ptr [ %78, %92 ], [ %62, %72 ]
  %77 = getelementptr inbounds i8, ptr %76, i64 8
  %78 = load ptr, ptr %77, align 8
  %79 = getelementptr inbounds i8, ptr %76, i64 88
  %80 = load ptr, ptr %79, align 8
  %81 = icmp eq ptr %80, null
  br i1 %81, label %92, label %82

82:                                               ; preds = %.preheader.i2
  %83 = getelementptr inbounds i8, ptr %76, i64 72
  %84 = getelementptr inbounds i8, ptr %76, i64 80
  %85 = load ptr, ptr %84, align 8
  %86 = load ptr, ptr %83, align 8
  %87 = getelementptr inbounds i8, ptr %86, i64 8
  store ptr %85, ptr %87, align 8
  store volatile ptr %86, ptr %85, align 8
  store volatile ptr %83, ptr %83, align 8
  store volatile ptr %83, ptr %84, align 8
  %88 = load ptr, ptr %79, align 8
  %89 = icmp eq ptr %88, null
  br i1 %89, label %90, label %91, !prof !18

90:                                               ; preds = %82
  tail call void asm sideeffect "843: nop\0A\09.pushsection .discard.instr_begin\0A\09.long 843b - .\0A\09.popsection\0A\09", "i,~{dirflag},~{fpsr},~{flags}"(i32 843) #13, !srcloc !33
  tail call void asm sideeffect "1:\09.byte 0x0f, 0x0b\0A.pushsection __bug_table,\22aw\22\0A2:\09.long 1b - .\09# bug_entry::bug_addr\0A\09.long ${0:c} - .\09# bug_entry::file\0A\09.word ${1:c}\09# bug_entry::line\0A\09.word ${2:c}\09# bug_entry::flags\0A\09.org 2b+${3:c}\0A.popsection\0A998:\0A\09.pushsection .discard.reachable\0A\09.long 998b\0A\09.popsection\0A\09", "i,i,i,i,~{dirflag},~{fpsr},~{flags}"(ptr nonnull @.str, i32 515, i32 2305, i64 12) #13, !srcloc !34
  tail call void asm sideeffect "844: nop\0A\09.pushsection .discard.instr_end\0A\09.long 844b - .\0A\09.popsection\0A\09", "i,~{dirflag},~{fpsr},~{flags}"(i32 844) #13, !srcloc !35
  br label %91

91:                                               ; preds = %90, %82
  store ptr null, ptr %79, align 8
  br label %92

92:                                               ; preds = %91, %.preheader.i2
  %93 = icmp eq ptr %78, %62
  br i1 %93, label %94, label %.preheader.i2, !llvm.loop !200

94:                                               ; preds = %92
  %95 = load volatile i64, ptr %0, align 8
  %96 = and i64 %95, 32768
  %97 = icmp eq i64 %96, 0
  br i1 %97, label %drop_buffers.exit3, label %98

98:                                               ; preds = %94
  %99 = getelementptr i8, ptr %0, i64 1
  tail call void asm sideeffect ".pushsection .smp_locks,\22a\22\0A.balign 4\0A.long 671f - .\0A.popsection\0A671:\0A\09lock; andb ${1:b},$0", "=*m,iq,*m,~{dirflag},~{fpsr},~{flags}"(ptr elementtype(i8) %99, i32 -129, ptr elementtype(i8) %99) #13, !srcloc !17
  store ptr null, ptr %61, align 8
  %100 = getelementptr inbounds i8, ptr %0, i64 52
  %101 = tail call i8 asm sideeffect ".pushsection .smp_locks,\22a\22\0A.balign 4\0A.long 671f - .\0A.popsection\0A671:\0A\09lock; decl $0\0A\09/* output condition code e*/\0A", "=*m,={@cce},*m,~{memory},~{dirflag},~{fpsr},~{flags}"(ptr elementtype(i32) %100, ptr elementtype(i32) %100) #13, !srcloc !61
  %102 = icmp ult i8 %101, 2
  tail call void @llvm.assume(i1 %102)
  %103 = icmp eq i8 %101, 0
  br i1 %103, label %drop_buffers.exit3, label %104

104:                                              ; preds = %98
  tail call void @__folio_put(ptr noundef %0) #13
  br label %drop_buffers.exit3

drop_buffers.exit3:                               ; preds = %104, %98, %94
  %105 = load volatile i64, ptr %0, align 8
  %106 = and i64 %105, 16
  %107 = icmp eq i64 %106, 0
  br i1 %107, label %drop_buffers.exit3.thread, label %108

108:                                              ; preds = %drop_buffers.exit3
  tail call void @__folio_cancel_dirty(ptr noundef %0) #13
  br label %drop_buffers.exit3.thread

drop_buffers.exit3.thread:                        ; preds = %63, %108, %drop_buffers.exit3
  %.15 = phi ptr [ %62, %108 ], [ %62, %drop_buffers.exit3 ], [ null, %63 ]
  tail call void @_raw_spin_unlock(ptr noundef %60) #13
  br label %drop_buffers.exit

drop_buffers.exit:                                ; preds = %58, %52, %48, %drop_buffers.exit3.thread
  %.2 = phi ptr [ %.15, %drop_buffers.exit3.thread ], [ %16, %48 ], [ %16, %52 ], [ %16, %58 ]
  %109 = phi i1 [ %71, %drop_buffers.exit3.thread ], [ true, %48 ], [ true, %52 ], [ true, %58 ]
  %110 = icmp eq ptr %.2, null
  br i1 %110, label %drop_buffers.exit.thread, label %.preheader

.preheader:                                       ; preds = %drop_buffers.exit, %.preheader
  %111 = phi ptr [ %113, %.preheader ], [ %.2, %drop_buffers.exit ]
  %112 = getelementptr inbounds i8, ptr %111, i64 8
  %113 = load ptr, ptr %112, align 8
  tail call void @free_buffer_head(ptr noundef %111)
  %114 = icmp eq ptr %113, %.2
  br i1 %114, label %drop_buffers.exit.thread, label %.preheader, !llvm.loop !201

drop_buffers.exit.thread:                         ; preds = %17, %.preheader, %drop_buffers.exit, %8
  %115 = phi i1 [ false, %8 ], [ %109, %drop_buffers.exit ], [ %109, %.preheader ], [ false, %17 ]
  ret i1 %115
}